; Function Attrs: mustprogress uwtable
define noundef nonnull align 8 dereferenceable(8) ptr @_ZN32pxrInternal_v0_24__pxrReserved__lsERSoRKNS_6GfLineE(ptr noundef nonnull align 8 dereferenceable(8) %0, ptr noundef nonnull readonly align 8 captures(none) dereferenceable(48) %1) local_unnamed_addr #0 {
  %3 = alloca %"class.pxrInternal_v0_24__pxrReserved__::GfVec3d", align 8
  %4 = alloca %"class.pxrInternal_v0_24__pxrReserved__::GfVec3d", align 8
  %5 = tail call noundef nonnull align 8 dereferenceable(8) ptr @_ZStlsISt11char_traitsIcEERSt13basic_ostreamIcT_ES5_c(ptr noundef nonnull align 8 dereferenceable(8) %0, i8 noundef signext 40)
  %6 = tail call noundef nonnull align 8 dereferenceable(8) ptr @_ZStlsISt11char_traitsIcEERSt13basic_ostreamIcT_ES5_PKc(ptr noundef nonnull align 8 dereferenceable(8) %5, ptr noundef nonnull @.str.2)
  %7 = getelementptr inbounds nuw i8, ptr %1, i64 24
  %.sroa.0.0.copyload.i.i = load double, ptr %7, align 8, !noalias !25
  %.sroa.4.0..sroa_idx.i.i = getelementptr inbounds nuw i8, ptr %1, i64 32
  %.sroa.4.0.copyload.i.i = load double, ptr %.sroa.4.0..sroa_idx.i.i, align 8, !noalias !25
  %.sroa.6.0..sroa_idx.i.i = getelementptr inbounds nuw i8, ptr %1, i64 40
  %.sroa.6.0.copyload.i.i = load double, ptr %.sroa.6.0..sroa_idx.i.i, align 8, !noalias !25
  %8 = fmul double %.sroa.0.0.copyload.i.i, 0.000000e+00
  %9 = fmul double %.sroa.4.0.copyload.i.i, 0.000000e+00
  %10 = fmul double %.sroa.6.0.copyload.i.i, 0.000000e+00
  %.sroa.0.0.copyload.i2.i = load double, ptr %1, align 8, !noalias !30
  %.sroa.4.0..sroa_idx.i3.i = getelementptr inbounds nuw i8, ptr %1, i64 8
  %.sroa.4.0.copyload.i4.i = load double, ptr %.sroa.4.0..sroa_idx.i3.i, align 8, !noalias !30
  %.sroa.6.0..sroa_idx.i5.i = getelementptr inbounds nuw i8, ptr %1, i64 16
  %.sroa.6.0.copyload.i6.i = load double, ptr %.sroa.6.0..sroa_idx.i5.i, align 8, !noalias !30
  %11 = fadd double %8, %.sroa.0.0.copyload.i2.i
  %12 = fadd double %9, %.sroa.4.0.copyload.i4.i
  %13 = fadd double %10, %.sroa.6.0.copyload.i6.i
  store double %11, ptr %3, align 8
  %.sroa.4.0..sroa_idx = getelementptr inbounds nuw i8, ptr %3, i64 8
  store double %12, ptr %.sroa.4.0..sroa_idx, align 8
  %.sroa.5.0..sroa_idx = getelementptr inbounds nuw i8, ptr %3, i64 16
  store double %13, ptr %.sroa.5.0..sroa_idx, align 8
  %14 = call noundef nonnull align 8 dereferenceable(8) ptr @_ZN32pxrInternal_v0_24__pxrReserved__lsERSoRKNS_7GfVec3dE(ptr noundef nonnull align 8 dereferenceable(8) %6, ptr noundef nonnull align 8 dereferenceable(24) %3)
  %15 = call noundef nonnull align 8 dereferenceable(8) ptr @_ZStlsISt11char_traitsIcEERSt13basic_ostreamIcT_ES5_c(ptr noundef nonnull align 8 dereferenceable(8) %14, i8 noundef signext 32)
  %16 = call noundef nonnull align 8 dereferenceable(8) ptr @_ZStlsISt11char_traitsIcEERSt13basic_ostreamIcT_ES5_PKc(ptr noundef nonnull align 8 dereferenceable(8) %15, ptr noundef nonnull @.str.3)
  call void @llvm.memcpy.p0.p0.i64(ptr noundef nonnull align 8 dereferenceable(24) %4, ptr noundef nonnull align 8 dereferenceable(24) %7, i64 24, i1 false)
  %17 = call noundef nonnull align 8 dereferenceable(8) ptr @_ZN32pxrInternal_v0_24__pxrReserved__lsERSoRKNS_7GfVec3dE(ptr noundef nonnull align 8 dereferenceable(8) %16, ptr noundef nonnull align 8 dereferenceable(24) %4)
  %18 = call noundef nonnull align 8 dereferenceable(8) ptr @_ZStlsISt11char_traitsIcEERSt13basic_ostreamIcT_ES5_c(ptr noundef nonnull align 8 dereferenceable(8) %17, i8 noundef signext 41)
  ret ptr %18
}